target datalayout = "e-m:e-p270:32:32-p271:32:32-p272:64:64-i64:64-i128:128-f80:128-n8:16:32:64-S128"
target triple = "x86_64-pc-linux-gnu"

; Function Attrs: nounwind uwtable
define internal i32 @f(double noundef %0, ptr noundef %1, ptr noundef %2, ptr noundef %3) #0 {
  %5 = alloca double, align 8
  %6 = alloca ptr, align 8
  %7 = alloca ptr, align 8
  %8 = alloca ptr, align 8
  %9 = alloca double, align 8
  %10 = alloca double, align 8
  %11 = alloca i32, align 4
  %12 = alloca ptr, align 8
  %13 = alloca ptr, align 8
  store double %0, ptr %5, align 8, !tbaa !20
  store ptr %1, ptr %6, align 8, !tbaa !4
  store ptr %2, ptr %7, align 8, !tbaa !4
  store ptr %3, ptr %8, align 8, !tbaa !13
  call void @llvm.lifetime.start.p0(i64 8, ptr %9) #5
  call void @llvm.lifetime.start.p0(i64 8, ptr %10) #5
  call void @llvm.lifetime.start.p0(i64 4, ptr %11) #5
  call void @llvm.lifetime.start.p0(i64 8, ptr %12) #5
  call void @llvm.lifetime.start.p0(i64 8, ptr %13) #5
  %14 = load ptr, ptr %8, align 8, !tbaa !13
  %15 = load i32, ptr %14, align 4, !tbaa !16
  store i32 %15, ptr %11, align 4, !tbaa !16
  %16 = load ptr, ptr %6, align 8, !tbaa !4
  %17 = call ptr @N_VGetArrayPointer(ptr noundef %16)
  store ptr %17, ptr %12, align 8, !tbaa !14
  %18 = load ptr, ptr %7, align 8, !tbaa !4
  %19 = call ptr @N_VGetArrayPointer(ptr noundef %18)
  store ptr %19, ptr %13, align 8, !tbaa !14
  %20 = load ptr, ptr %12, align 8, !tbaa !14
  %21 = getelementptr inbounds double, ptr %20, i64 1
  %22 = load double, ptr %21, align 8, !tbaa !20
  store double %22, ptr %9, align 8, !tbaa !20
  %23 = load double, ptr %9, align 8, !tbaa !20
  %24 = load ptr, ptr %13, align 8, !tbaa !14
  %25 = getelementptr inbounds double, ptr %24, i64 0
  store double %23, ptr %25, align 8, !tbaa !20
  %26 = load i32, ptr %11, align 4, !tbaa !16
  %27 = icmp ne i32 %26, 0
  br i1 %27, label %28, label %32

28:                                               ; preds = %4
  %29 = load double, ptr %5, align 8, !tbaa !20
  %30 = call double @llvm.fmuladd.f64(double -1.000000e-01, double %29, double 1.100000e+01)
  %31 = fdiv double 2.200000e+03, %30
  br label %33

32:                                               ; preds = %4
  br label %33

33:                                               ; preds = %32, %28
  %34 = phi double [ %31, %28 ], [ 0.000000e+00, %32 ]
  store double %34, ptr %10, align 8, !tbaa !20
  %35 = load double, ptr %10, align 8, !tbaa !20
  %36 = load double, ptr %9, align 8, !tbaa !20
  %37 = call double @llvm.fmuladd.f64(double -3.000000e-01, double %36, double %35)
  %38 = fsub double %37, 3.200000e+01
  %39 = load ptr, ptr %13, align 8, !tbaa !14
  %40 = getelementptr inbounds double, ptr %39, i64 1
  store double %38, ptr %40, align 8, !tbaa !20
  call void @llvm.lifetime.end.p0(i64 8, ptr %13) #5
  call void @llvm.lifetime.end.p0(i64 8, ptr %12) #5
  call void @llvm.lifetime.end.p0(i64 4, ptr %11) #5
  call void @llvm.lifetime.end.p0(i64 8, ptr %10) #5
  call void @llvm.lifetime.end.p0(i64 8, ptr %9) #5
  ret i32 0
}