; Function Attrs: nounwind uwtable
define internal noundef i32 @f(double noundef %0, ptr noundef %1, ptr noundef %2, ptr noundef readonly captures(none) %3) #0 {
  %5 = load i32, ptr %3, align 4, !tbaa !14
  %6 = tail call ptr @N_VGetArrayPointer(ptr noundef %1) #8
  %7 = tail call ptr @N_VGetArrayPointer(ptr noundef %2) #8
  %8 = getelementptr inbounds nuw i8, ptr %6, i64 8
  %9 = load double, ptr %8, align 8, !tbaa !11
  store double %9, ptr %7, align 8, !tbaa !11
  %.not = icmp eq i32 %5, 0
  %10 = tail call double @llvm.fmuladd.f64(double %0, double -1.000000e-01, double 1.100000e+01)
  %11 = fdiv double 2.200000e+03, %10
  %12 = select i1 %.not, double 0.000000e+00, double %11
  %13 = tail call double @llvm.fmuladd.f64(double %9, double -3.000000e-01, double %12)
  %14 = fadd double %13, -3.200000e+01
  %15 = getelementptr inbounds nuw i8, ptr %7, i64 8
  store double %14, ptr %15, align 8, !tbaa !11
  ret i32 0
}